target datalayout = "e-m:e-p270:32:32-p271:32:32-p272:64:64-i64:64-i128:128-f80:128-n8:16:32:64-S128"
target triple = "x86_64-pc-linux-gnu"

%struct.b3DynamicBvh = type { ptr, ptr, i32, i32, i32, [4 x i8], %class.b3AlignedObjectArray, %class.b3AlignedObjectArray.0 }
%class.b3AlignedObjectArray = type <{ [4 x i8], i32, i32, [4 x i8], ptr, i8, [7 x i8] }>
%class.b3AlignedObjectArray.0 = type <{ [4 x i8], i32, i32, [4 x i8], ptr, i8, [7 x i8] }>
%class.b3AlignedObjectArray.2 = type <{ [4 x i8], i32, i32, [4 x i8], ptr, i8, [7 x i8] }>

@.str = private unnamed_addr constant [17 x i8] c"b3Error[%s,%d]:\0A\00", align 1
@.str.1 = private unnamed_addr constant [134 x i8] c"generated/home/dtcxzyw/WorkSpace/Projects/compilers/llvm-opt-benchmark/bench/bullet3/bullet3/src/Bullet3Common/b3AlignedObjectArray.h\00", align 1
@.str.2 = private unnamed_addr constant [44 x i8] c"b3AlignedObjectArray reserve out-of-memory\0A\00", align 1

; Function Attrs: mustprogress uwtable
define linkonce_odr dso_local void @_ZN18b3AlignedAllocatorIP10b3DbvtNodeLj16EE10deallocateEPS1_(ptr noundef nonnull align 1 dereferenceable(1) %0, ptr noundef %1) #0 comdat align 2 {
  %3 = alloca ptr, align 8
  %4 = alloca ptr, align 8
  store ptr %0, ptr %3, align 8, !tbaa !123
  store ptr %1, ptr %4, align 8, !tbaa !33
  %5 = load ptr, ptr %4, align 8, !tbaa !33
  call void @_Z21b3AlignedFreeInternalPv(ptr noundef %5)
  ret void
}

; Function Attrs: mustprogress uwtable
define linkonce_odr dso_local noundef ptr @_ZN18b3AlignedAllocatorIP10b3DbvtNodeLj16EE8allocateEiPPKS1_(ptr noundef nonnull align 1 dereferenceable(1) %0, i32 noundef %1, ptr noundef %2) #0 comdat align 2 {
  %4 = alloca ptr, align 8
  %5 = alloca i32, align 4
  %6 = alloca ptr, align 8
  store ptr %0, ptr %4, align 8, !tbaa !123
  store i32 %1, ptr %5, align 4, !tbaa !32
  store ptr %2, ptr %6, align 8, !tbaa !119
  %7 = load i32, ptr %5, align 4, !tbaa !32
  %8 = sext i32 %7 to i64
  %9 = mul i64 8, %8
  %10 = call noundef ptr @_Z22b3AlignedAllocInternalmi(i64 noundef %9, i32 noundef 16)
  ret ptr %10
}

; Function Attrs: inlinehint mustprogress uwtable
define linkonce_odr dso_local void @_ZN20b3AlignedObjectArrayIP10b3DbvtNodeE10deallocateEv(ptr noundef nonnull align 8 dereferenceable(25) %0) #4 comdat align 2 {
  %2 = alloca ptr, align 8
  store ptr %0, ptr %2, align 8, !tbaa !30
  %3 = load ptr, ptr %2, align 8
  %4 = getelementptr inbounds nuw %class.b3AlignedObjectArray.2, ptr %3, i32 0, i32 4
  %5 = load ptr, ptr %4, align 8, !tbaa !38
  %6 = icmp ne ptr %5, null
  br i1 %6, label %7, label %16

7:                                                ; preds = %1
  %8 = getelementptr inbounds nuw %class.b3AlignedObjectArray.2, ptr %3, i32 0, i32 5
  %9 = load i8, ptr %8, align 8, !tbaa !37, !range !116, !noundef !117
  %10 = trunc i8 %9 to i1
  br i1 %10, label %11, label %14

11:                                               ; preds = %7
  %12 = getelementptr inbounds nuw %class.b3AlignedObjectArray.2, ptr %3, i32 0, i32 4
  %13 = load ptr, ptr %12, align 8, !tbaa !38
  call void @_ZN18b3AlignedAllocatorIP10b3DbvtNodeLj16EE10deallocateEPS1_(ptr noundef nonnull align 1 dereferenceable(1) %3, ptr noundef %13)
  br label %14

14:                                               ; preds = %11, %7
  %15 = getelementptr inbounds nuw %class.b3AlignedObjectArray.2, ptr %3, i32 0, i32 4
  store ptr null, ptr %15, align 8, !tbaa !38
  br label %16

16:                                               ; preds = %14, %1
  ret void
}

; Function Attrs: inlinehint mustprogress nounwind uwtable
define linkonce_odr dso_local void @_ZN20b3AlignedObjectArrayIP10b3DbvtNodeE7destroyEii(ptr noundef nonnull align 8 dereferenceable(25) %0, i32 noundef %1, i32 noundef %2) #6 comdat align 2 {
  %4 = alloca ptr, align 8
  %5 = alloca i32, align 4
  %6 = alloca i32, align 4
  %7 = alloca i32, align 4
  store ptr %0, ptr %4, align 8, !tbaa !30
  store i32 %1, ptr %5, align 4, !tbaa !32
  store i32 %2, ptr %6, align 4, !tbaa !32
  call void @llvm.lifetime.start.p0(i64 4, ptr %7) #12
  %8 = load i32, ptr %5, align 4, !tbaa !32
  store i32 %8, ptr %7, align 4, !tbaa !32
  br label %9

9:                                                ; preds = %14, %3
  %10 = load i32, ptr %7, align 4, !tbaa !32
  %11 = load i32, ptr %6, align 4, !tbaa !32
  %12 = icmp slt i32 %10, %11
  br i1 %12, label %13, label %17

13:                                               ; preds = %9
  br label %14

14:                                               ; preds = %13
  %15 = load i32, ptr %7, align 4, !tbaa !32
  %16 = add nsw i32 %15, 1
  store i32 %16, ptr %7, align 4, !tbaa !32
  br label %9, !llvm.loop !125

17:                                               ; preds = %9
  call void @llvm.lifetime.end.p0(i64 4, ptr %7) #12
  ret void
}

; Function Attrs: inlinehint mustprogress nounwind uwtable
define linkonce_odr dso_local void @_ZNK20b3AlignedObjectArrayIP10b3DbvtNodeE4copyEiiPS1_(ptr noundef nonnull align 8 dereferenceable(25) %0, i32 noundef %1, i32 noundef %2, ptr noundef %3) #6 comdat align 2 {
  %5 = alloca ptr, align 8
  %6 = alloca i32, align 4
  %7 = alloca i32, align 4
  %8 = alloca ptr, align 8
  %9 = alloca i32, align 4
  store ptr %0, ptr %5, align 8, !tbaa !30
  store i32 %1, ptr %6, align 4, !tbaa !32
  store i32 %2, ptr %7, align 4, !tbaa !32
  store ptr %3, ptr %8, align 8, !tbaa !33
  %10 = load ptr, ptr %5, align 8
  call void @llvm.lifetime.start.p0(i64 4, ptr %9) #12
  %11 = load i32, ptr %6, align 4, !tbaa !32
  store i32 %11, ptr %9, align 4, !tbaa !32
  br label %12

12:                                               ; preds = %27, %4
  %13 = load i32, ptr %9, align 4, !tbaa !32
  %14 = load i32, ptr %7, align 4, !tbaa !32
  %15 = icmp slt i32 %13, %14
  br i1 %15, label %16, label %30

16:                                               ; preds = %12
  %17 = load ptr, ptr %8, align 8, !tbaa !33
  %18 = load i32, ptr %9, align 4, !tbaa !32
  %19 = sext i32 %18 to i64
  %20 = getelementptr inbounds ptr, ptr %17, i64 %19
  %21 = getelementptr inbounds nuw %class.b3AlignedObjectArray.2, ptr %10, i32 0, i32 4
  %22 = load ptr, ptr %21, align 8, !tbaa !38
  %23 = load i32, ptr %9, align 4, !tbaa !32
  %24 = sext i32 %23 to i64
  %25 = getelementptr inbounds ptr, ptr %22, i64 %24
  %26 = load ptr, ptr %25, align 8, !tbaa !28
  store ptr %26, ptr %20, align 8, !tbaa !28
  br label %27

27:                                               ; preds = %16
  %28 = load i32, ptr %9, align 4, !tbaa !32
  %29 = add nsw i32 %28, 1
  store i32 %29, ptr %9, align 4, !tbaa !32
  br label %12, !llvm.loop !126

30:                                               ; preds = %12
  call void @llvm.lifetime.end.p0(i64 4, ptr %9) #12
  ret void
}

; Function Attrs: inlinehint mustprogress uwtable
define linkonce_odr dso_local noundef ptr @_ZN20b3AlignedObjectArrayIP10b3DbvtNodeE8allocateEi(ptr noundef nonnull align 8 dereferenceable(25) %0, i32 noundef %1) #4 comdat align 2 {
  %3 = alloca ptr, align 8
  %4 = alloca ptr, align 8
  %5 = alloca i32, align 4
  store ptr %0, ptr %4, align 8, !tbaa !30
  store i32 %1, ptr %5, align 4, !tbaa !32
  %6 = load ptr, ptr %4, align 8
  %7 = load i32, ptr %5, align 4, !tbaa !32
  %8 = icmp ne i32 %7, 0
  br i1 %8, label %9, label %12

9:                                                ; preds = %2
  %10 = load i32, ptr %5, align 4, !tbaa !32
  %11 = call noundef ptr @_ZN18b3AlignedAllocatorIP10b3DbvtNodeLj16EE8allocateEiPPKS1_(ptr noundef nonnull align 1 dereferenceable(1) %6, i32 noundef %10, ptr noundef null)
  store ptr %11, ptr %3, align 8
  br label %13

12:                                               ; preds = %2
  store ptr null, ptr %3, align 8
  br label %13

13:                                               ; preds = %12, %9
  %14 = load ptr, ptr %3, align 8
  ret ptr %14
}

; Function Attrs: inlinehint mustprogress nounwind uwtable
define linkonce_odr dso_local noundef i32 @_ZNK20b3AlignedObjectArrayIP10b3DbvtNodeE8capacityEv(ptr noundef nonnull align 8 dereferenceable(25) %0) #6 comdat align 2 {
  %2 = alloca ptr, align 8
  store ptr %0, ptr %2, align 8, !tbaa !30
  %3 = load ptr, ptr %2, align 8
  %4 = getelementptr inbounds nuw %class.b3AlignedObjectArray.2, ptr %3, i32 0, i32 2
  %5 = load i32, ptr %4, align 8, !tbaa !39
  ret i32 %5
}

; Function Attrs: inlinehint mustprogress nounwind uwtable
define linkonce_odr dso_local void @_ZN20b3AlignedObjectArrayIP10b3DbvtNodeE4initEv(ptr noundef nonnull align 8 dereferenceable(25) %0) #6 comdat align 2 {
  %2 = alloca ptr, align 8
  store ptr %0, ptr %2, align 8, !tbaa !30
  %3 = load ptr, ptr %2, align 8
  %4 = getelementptr inbounds nuw %class.b3AlignedObjectArray.2, ptr %3, i32 0, i32 5
  store i8 1, ptr %4, align 8, !tbaa !37
  %5 = getelementptr inbounds nuw %class.b3AlignedObjectArray.2, ptr %3, i32 0, i32 4
  store ptr null, ptr %5, align 8, !tbaa !38
  %6 = getelementptr inbounds nuw %class.b3AlignedObjectArray.2, ptr %3, i32 0, i32 1
  store i32 0, ptr %6, align 4, !tbaa !34
  %7 = getelementptr inbounds nuw %class.b3AlignedObjectArray.2, ptr %3, i32 0, i32 2
  store i32 0, ptr %7, align 8, !tbaa !39
  ret void
}

; Function Attrs: mustprogress nounwind uwtable
define linkonce_odr dso_local void @_ZN18b3AlignedAllocatorIP10b3DbvtNodeLj16EEC2Ev(ptr noundef nonnull align 1 dereferenceable(1) %0) unnamed_addr #1 comdat align 2 {
  %2 = alloca ptr, align 8
  store ptr %0, ptr %2, align 8, !tbaa !123
  ret void
}

; Function Attrs: inlinehint mustprogress nounwind uwtable
define linkonce_odr dso_local noundef i32 @_ZNK20b3AlignedObjectArrayIP10b3DbvtNodeE4sizeEv(ptr noundef nonnull align 8 dereferenceable(25) %0) #6 comdat align 2 {
  %2 = alloca ptr, align 8
  store ptr %0, ptr %2, align 8, !tbaa !30
  %3 = load ptr, ptr %2, align 8
  %4 = getelementptr inbounds nuw %class.b3AlignedObjectArray.2, ptr %3, i32 0, i32 1
  %5 = load i32, ptr %4, align 4, !tbaa !34
  ret i32 %5
}

; Function Attrs: inlinehint mustprogress nounwind uwtable
define linkonce_odr dso_local noundef nonnull align 8 dereferenceable(8) ptr @_ZN20b3AlignedObjectArrayIP10b3DbvtNodeEixEi(ptr noundef nonnull align 8 dereferenceable(25) %0, i32 noundef %1) #6 comdat align 2 {
  %3 = alloca ptr, align 8
  %4 = alloca i32, align 4
  store ptr %0, ptr %3, align 8, !tbaa !30
  store i32 %1, ptr %4, align 4, !tbaa !32
  %5 = load ptr, ptr %3, align 8
  %6 = getelementptr inbounds nuw %class.b3AlignedObjectArray.2, ptr %5, i32 0, i32 4
  %7 = load ptr, ptr %6, align 8, !tbaa !38
  %8 = load i32, ptr %4, align 4, !tbaa !32
  %9 = sext i32 %8 to i64
  %10 = getelementptr inbounds ptr, ptr %7, i64 %9
  ret ptr %10
}

; Function Attrs: inlinehint mustprogress uwtable
define linkonce_odr dso_local void @_ZN20b3AlignedObjectArrayIP10b3DbvtNodeE7reserveEi(ptr noundef nonnull align 8 dereferenceable(25) %0, i32 noundef %1) #4 comdat align 2 {
  %3 = alloca ptr, align 8
  %4 = alloca i32, align 4
  %5 = alloca ptr, align 8
  store ptr %0, ptr %3, align 8, !tbaa !30
  store i32 %1, ptr %4, align 4, !tbaa !32
  %6 = load ptr, ptr %3, align 8
  %7 = call noundef i32 @_ZNK20b3AlignedObjectArrayIP10b3DbvtNodeE8capacityEv(ptr noundef nonnull align 8 dereferenceable(25) %6)
  %8 = load i32, ptr %4, align 4, !tbaa !32
  %9 = icmp slt i32 %7, %8
  br i1 %9, label %10, label %29

10:                                               ; preds = %2
  call void @llvm.lifetime.start.p0(i64 8, ptr %5) #12
  %11 = load i32, ptr %4, align 4, !tbaa !32
  %12 = call noundef ptr @_ZN20b3AlignedObjectArrayIP10b3DbvtNodeE8allocateEi(ptr noundef nonnull align 8 dereferenceable(25) %6, i32 noundef %11)
  store ptr %12, ptr %5, align 8, !tbaa !33
  %13 = load ptr, ptr %5, align 8, !tbaa !33
  %14 = icmp eq ptr %13, null
  br i1 %14, label %15, label %20

15:                                               ; preds = %10
  br label %16

16:                                               ; preds = %15
  call void (ptr, ...) @b3OutputErrorMessageVarArgsInternal(ptr noundef @.str, ptr noundef @.str.1, i32 noundef 301)
  call void (ptr, ...) @b3OutputErrorMessageVarArgsInternal(ptr noundef @.str.2)
  br label %17

17:                                               ; preds = %16
  br label %18

18:                                               ; preds = %17
  store i32 0, ptr %4, align 4, !tbaa !32
  %19 = getelementptr inbounds nuw %class.b3AlignedObjectArray.2, ptr %6, i32 0, i32 1
  store i32 0, ptr %19, align 4, !tbaa !34
  br label %20

20:                                               ; preds = %18, %10
  %21 = call noundef i32 @_ZNK20b3AlignedObjectArrayIP10b3DbvtNodeE4sizeEv(ptr noundef nonnull align 8 dereferenceable(25) %6)
  %22 = load ptr, ptr %5, align 8, !tbaa !33
  call void @_ZNK20b3AlignedObjectArrayIP10b3DbvtNodeE4copyEiiPS1_(ptr noundef nonnull align 8 dereferenceable(25) %6, i32 noundef 0, i32 noundef %21, ptr noundef %22)
  %23 = call noundef i32 @_ZNK20b3AlignedObjectArrayIP10b3DbvtNodeE4sizeEv(ptr noundef nonnull align 8 dereferenceable(25) %6)
  call void @_ZN20b3AlignedObjectArrayIP10b3DbvtNodeE7destroyEii(ptr noundef nonnull align 8 dereferenceable(25) %6, i32 noundef 0, i32 noundef %23)
  call void @_ZN20b3AlignedObjectArrayIP10b3DbvtNodeE10deallocateEv(ptr noundef nonnull align 8 dereferenceable(25) %6)
  %24 = getelementptr inbounds nuw %class.b3AlignedObjectArray.2, ptr %6, i32 0, i32 5
  store i8 1, ptr %24, align 8, !tbaa !37
  %25 = load ptr, ptr %5, align 8, !tbaa !33
  %26 = getelementptr inbounds nuw %class.b3AlignedObjectArray.2, ptr %6, i32 0, i32 4
  store ptr %25, ptr %26, align 8, !tbaa !38
  %27 = load i32, ptr %4, align 4, !tbaa !32
  %28 = getelementptr inbounds nuw %class.b3AlignedObjectArray.2, ptr %6, i32 0, i32 2
  store i32 %27, ptr %28, align 8, !tbaa !39
  call void @llvm.lifetime.end.p0(i64 8, ptr %5) #12
  br label %29

29:                                               ; preds = %20, %2
  ret void
}

; Function Attrs: mustprogress uwtable
define linkonce_odr dso_local void @_ZN20b3AlignedObjectArrayIP10b3DbvtNodeEC2Ev(ptr noundef nonnull align 8 dereferenceable(25) %0) unnamed_addr #0 comdat align 2 {
  %2 = alloca ptr, align 8
  store ptr %0, ptr %2, align 8, !tbaa !30
  %3 = load ptr, ptr %2, align 8
  call void @_ZN18b3AlignedAllocatorIP10b3DbvtNodeLj16EEC2Ev(ptr noundef nonnull align 1 dereferenceable(1) %3)
  call void @_ZN20b3AlignedObjectArrayIP10b3DbvtNodeE4initEv(ptr noundef nonnull align 8 dereferenceable(25) %3)
  ret void
}

; Function Attrs: mustprogress uwtable
define dso_local void @_ZN12b3DynamicBvh16optimizeBottomUpEv(ptr noundef nonnull align 8 dereferenceable(96) %0) #0 align 2 personality ptr @__gxx_personality_v0 {
  %2 = alloca ptr, align 8
  %3 = alloca %class.b3AlignedObjectArray.2, align 8
  %4 = alloca ptr, align 8
  %5 = alloca i32, align 4
  store ptr %0, ptr %2, align 8, !tbaa !4
  %6 = load ptr, ptr %2, align 8
  %7 = getelementptr inbounds nuw %struct.b3DynamicBvh, ptr %6, i32 0, i32 0
  %8 = load ptr, ptr %7, align 8, !tbaa !9
  %9 = icmp ne ptr %8, null
  br i1 %9, label %10, label %30

10:                                               ; preds = %1
  call void @llvm.lifetime.start.p0(i64 32, ptr %3) #12
  call void @_ZN20b3AlignedObjectArrayIP10b3DbvtNodeEC2Ev(ptr noundef nonnull align 8 dereferenceable(25) %3)
  %11 = getelementptr inbounds nuw %struct.b3DynamicBvh, ptr %6, i32 0, i32 3
  %12 = load i32, ptr %11, align 4, !tbaa !22
  invoke void @_ZN20b3AlignedObjectArrayIP10b3DbvtNodeE7reserveEi(ptr noundef nonnull align 8 dereferenceable(25) %3, i32 noundef %12)
          to label %13 unwind label %26

13:                                               ; preds = %10
  %14 = getelementptr inbounds nuw %struct.b3DynamicBvh, ptr %6, i32 0, i32 0
  %15 = load ptr, ptr %14, align 8, !tbaa !9
  invoke void @_ZL13b3FetchLeavesP12b3DynamicBvhP10b3DbvtNodeR20b3AlignedObjectArrayIS2_Ei(ptr noundef %6, ptr noundef %15, ptr noundef nonnull align 8 dereferenceable(25) %3, i32 noundef -1)
          to label %16 unwind label %26

16:                                               ; preds = %13
  %17 = invoke noundef nonnull align 8 dereferenceable(8) ptr @_ZN20b3AlignedObjectArrayIP10b3DbvtNodeEixEi(ptr noundef nonnull align 8 dereferenceable(25) %3, i32 noundef 0)
          to label %18 unwind label %26

18:                                               ; preds = %16
  %19 = invoke noundef i32 @_ZNK20b3AlignedObjectArrayIP10b3DbvtNodeE4sizeEv(ptr noundef nonnull align 8 dereferenceable(25) %3)
          to label %20 unwind label %26

20:                                               ; preds = %18
  invoke void @_ZL10b3BottomUpP12b3DynamicBvhPP10b3DbvtNodei(ptr noundef %6, ptr noundef %17, i32 noundef %19)
          to label %21 unwind label %26

21:                                               ; preds = %20
  %22 = invoke noundef nonnull align 8 dereferenceable(8) ptr @_ZN20b3AlignedObjectArrayIP10b3DbvtNodeEixEi(ptr noundef nonnull align 8 dereferenceable(25) %3, i32 noundef 0)
          to label %23 unwind label %26

23:                                               ; preds = %21
  %24 = load ptr, ptr %22, align 8, !tbaa !28
  %25 = getelementptr inbounds nuw %struct.b3DynamicBvh, ptr %6, i32 0, i32 0
  store ptr %24, ptr %25, align 8, !tbaa !9
  call void @_ZN20b3AlignedObjectArrayIP10b3DbvtNodeED2Ev(ptr noundef nonnull align 8 dereferenceable(25) %3) #12
  call void @llvm.lifetime.end.p0(i64 32, ptr %3) #12
  br label %30

26:                                               ; preds = %21, %20, %18, %16, %13, %10
  %27 = landingpad { ptr, i32 }
          cleanup
  %28 = extractvalue { ptr, i32 } %27, 0
  store ptr %28, ptr %4, align 8
  %29 = extractvalue { ptr, i32 } %27, 1
  store i32 %29, ptr %5, align 4
  call void @_ZN20b3AlignedObjectArrayIP10b3DbvtNodeED2Ev(ptr noundef nonnull align 8 dereferenceable(25) %3) #12
  call void @llvm.lifetime.end.p0(i64 32, ptr %3) #12
  br label %31

30:                                               ; preds = %23, %1
  ret void

31:                                               ; preds = %26
  %32 = load ptr, ptr %4, align 8
  %33 = load i32, ptr %5, align 4
  %34 = insertvalue { ptr, i32 } poison, ptr %32, 0
  %35 = insertvalue { ptr, i32 } %34, i32 %33, 1
  resume { ptr, i32 } %35
}