; Function Attrs: mustprogress uwtable
define dso_local void @_ZN12b3DynamicBvh16optimizeBottomUpEv(ptr noundef nonnull align 8 dereferenceable(96) %0) local_unnamed_addr #2 align 2 personality ptr @__gxx_personality_v0 {
  %2 = alloca %class.b3AlignedObjectArray.2, align 8
  %3 = load ptr, ptr %0, align 8, !tbaa !28
  %.not = icmp eq ptr %3, null
  br i1 %.not, label %42, label %4

4:                                                ; preds = %1
  call void @llvm.lifetime.start.p0(i64 32, ptr nonnull %2) #19
  %5 = getelementptr inbounds nuw i8, ptr %2, i64 24
  store i8 1, ptr %5, align 8, !tbaa !33
  %6 = getelementptr inbounds nuw i8, ptr %2, i64 16
  store ptr null, ptr %6, align 8, !tbaa !36
  %7 = getelementptr inbounds nuw i8, ptr %2, i64 4
  store i32 0, ptr %7, align 4, !tbaa !37
  %8 = getelementptr inbounds nuw i8, ptr %2, i64 8
  store i32 0, ptr %8, align 8, !tbaa !38
  %9 = getelementptr inbounds nuw i8, ptr %0, i64 20
  %10 = load i32, ptr %9, align 4, !tbaa !26
  %11 = icmp sgt i32 %10, 0
  br i1 %11, label %_ZN20b3AlignedObjectArrayIP10b3DbvtNodeE8allocateEi.exit.i, label %_ZN20b3AlignedObjectArrayIP10b3DbvtNodeE7reserveEi.exit

_ZN20b3AlignedObjectArrayIP10b3DbvtNodeE8allocateEi.exit.i: ; preds = %4
  %12 = zext nneg i32 %10 to i64
  %13 = shl nuw nsw i64 %12, 3
  %14 = invoke noundef ptr @_Z22b3AlignedAllocInternalmi(i64 noundef %13, i32 noundef 16)
          to label %.noexc unwind label %40

.noexc:                                           ; preds = %_ZN20b3AlignedObjectArrayIP10b3DbvtNodeE8allocateEi.exit.i
  %15 = icmp eq ptr %14, null
  br i1 %15, label %_ZNK20b3AlignedObjectArrayIP10b3DbvtNodeE4copyEiiPS1_.exit15.i, label %.split.i

.split.i:                                         ; preds = %.noexc
  %16 = load i32, ptr %7, align 4, !tbaa !37
  %17 = icmp sgt i32 %16, 0
  %.pre5 = load ptr, ptr %6, align 8, !tbaa !36
  br i1 %17, label %.lr.ph.i.i, label %_ZNK20b3AlignedObjectArrayIP10b3DbvtNodeE4copyEiiPS1_.exit.i

.lr.ph.i.i:                                       ; preds = %.split.i
  %wide.trip.count.i.i = zext nneg i32 %16 to i64
  br label %18

18:                                               ; preds = %18, %.lr.ph.i.i
  %indvars.iv.i.i = phi i64 [ 0, %.lr.ph.i.i ], [ %indvars.iv.next.i.i, %18 ]
  %19 = getelementptr inbounds nuw ptr, ptr %14, i64 %indvars.iv.i.i
  %20 = getelementptr inbounds nuw ptr, ptr %.pre5, i64 %indvars.iv.i.i
  %21 = load ptr, ptr %20, align 8, !tbaa !39
  store ptr %21, ptr %19, align 8, !tbaa !39
  %indvars.iv.next.i.i = add nuw nsw i64 %indvars.iv.i.i, 1
  %exitcond.not.i.i = icmp eq i64 %indvars.iv.next.i.i, %wide.trip.count.i.i
  br i1 %exitcond.not.i.i, label %_ZNK20b3AlignedObjectArrayIP10b3DbvtNodeE4copyEiiPS1_.exit.i.thread, label %18, !llvm.loop !40

_ZNK20b3AlignedObjectArrayIP10b3DbvtNodeE4copyEiiPS1_.exit15.i: ; preds = %.noexc
  invoke void (ptr, ...) @b3OutputErrorMessageVarArgsInternal(ptr noundef nonnull @.str, ptr noundef nonnull @.str.1, i32 noundef 301)
          to label %.noexc2 unwind label %40

.noexc2:                                          ; preds = %_ZNK20b3AlignedObjectArrayIP10b3DbvtNodeE4copyEiiPS1_.exit15.i
  invoke void (ptr, ...) @b3OutputErrorMessageVarArgsInternal(ptr noundef nonnull @.str.2)
          to label %.noexc3 unwind label %40

.noexc3:                                          ; preds = %.noexc2
  store i32 0, ptr %7, align 4, !tbaa !37
  %.pre = load ptr, ptr %6, align 8, !tbaa !36
  br label %_ZNK20b3AlignedObjectArrayIP10b3DbvtNodeE4copyEiiPS1_.exit.i

_ZNK20b3AlignedObjectArrayIP10b3DbvtNodeE4copyEiiPS1_.exit.i: ; preds = %.noexc3, %.split.i
  %22 = phi ptr [ %.pre, %.noexc3 ], [ %.pre5, %.split.i ]
  %.0.i = phi i32 [ 0, %.noexc3 ], [ %10, %.split.i ]
  %.not.i16.i = icmp eq ptr %22, null
  br i1 %.not.i16.i, label %_ZN20b3AlignedObjectArrayIP10b3DbvtNodeE10deallocateEv.exit.i, label %_ZNK20b3AlignedObjectArrayIP10b3DbvtNodeE4copyEiiPS1_.exit.i.thread

_ZNK20b3AlignedObjectArrayIP10b3DbvtNodeE4copyEiiPS1_.exit.i.thread: ; preds = %18, %_ZNK20b3AlignedObjectArrayIP10b3DbvtNodeE4copyEiiPS1_.exit.i
  %.0.i9 = phi i32 [ %.0.i, %_ZNK20b3AlignedObjectArrayIP10b3DbvtNodeE4copyEiiPS1_.exit.i ], [ %10, %18 ]
  %23 = phi ptr [ %22, %_ZNK20b3AlignedObjectArrayIP10b3DbvtNodeE4copyEiiPS1_.exit.i ], [ %.pre5, %18 ]
  %24 = load i8, ptr %5, align 8, !tbaa !33, !range !30, !noundef !31
  %25 = trunc nuw i8 %24 to i1
  br i1 %25, label %26, label %_ZN20b3AlignedObjectArrayIP10b3DbvtNodeE10deallocateEv.exit.i

26:                                               ; preds = %_ZNK20b3AlignedObjectArrayIP10b3DbvtNodeE4copyEiiPS1_.exit.i.thread
  invoke void @_Z21b3AlignedFreeInternalPv(ptr noundef nonnull %23)
          to label %_ZN20b3AlignedObjectArrayIP10b3DbvtNodeE10deallocateEv.exit.i unwind label %40

_ZN20b3AlignedObjectArrayIP10b3DbvtNodeE10deallocateEv.exit.i: ; preds = %26, %_ZNK20b3AlignedObjectArrayIP10b3DbvtNodeE4copyEiiPS1_.exit.i.thread, %_ZNK20b3AlignedObjectArrayIP10b3DbvtNodeE4copyEiiPS1_.exit.i
  %.0.i10 = phi i32 [ %.0.i9, %26 ], [ %.0.i9, %_ZNK20b3AlignedObjectArrayIP10b3DbvtNodeE4copyEiiPS1_.exit.i.thread ], [ %.0.i, %_ZNK20b3AlignedObjectArrayIP10b3DbvtNodeE4copyEiiPS1_.exit.i ]
  store i8 1, ptr %5, align 8, !tbaa !33
  store ptr %14, ptr %6, align 8, !tbaa !36
  store i32 %.0.i10, ptr %8, align 8, !tbaa !38
  %.pre6 = load ptr, ptr %0, align 8, !tbaa !28
  br label %_ZN20b3AlignedObjectArrayIP10b3DbvtNodeE7reserveEi.exit

_ZN20b3AlignedObjectArrayIP10b3DbvtNodeE7reserveEi.exit: ; preds = %_ZN20b3AlignedObjectArrayIP10b3DbvtNodeE10deallocateEv.exit.i, %4
  %27 = phi ptr [ %.pre6, %_ZN20b3AlignedObjectArrayIP10b3DbvtNodeE10deallocateEv.exit.i ], [ %3, %4 ]
  invoke fastcc void @_ZL13b3FetchLeavesP12b3DynamicBvhP10b3DbvtNodeR20b3AlignedObjectArrayIS2_Ei(ptr noundef %0, ptr noundef %27, ptr noundef nonnull align 8 dereferenceable(25) %2, i32 noundef -1)
          to label %28 unwind label %40

28:                                               ; preds = %_ZN20b3AlignedObjectArrayIP10b3DbvtNodeE7reserveEi.exit
  %29 = load ptr, ptr %6, align 8, !tbaa !36
  %30 = load i32, ptr %7, align 4, !tbaa !37
  invoke fastcc void @_ZL10b3BottomUpP12b3DynamicBvhPP10b3DbvtNodei(ptr noundef %0, ptr noundef %29, i32 noundef %30)
          to label %31 unwind label %40

31:                                               ; preds = %28
  %32 = load ptr, ptr %6, align 8, !tbaa !36
  %33 = load ptr, ptr %32, align 8, !tbaa !39
  store ptr %33, ptr %0, align 8, !tbaa !28
  %34 = load i8, ptr %5, align 8, !tbaa !33, !range !30, !noundef !31
  %35 = trunc nuw i8 %34 to i1
  br i1 %35, label %36, label %_ZN20b3AlignedObjectArrayIP10b3DbvtNodeED2Ev.exit

36:                                               ; preds = %31
  invoke void @_Z21b3AlignedFreeInternalPv(ptr noundef nonnull %32)
          to label %_ZN20b3AlignedObjectArrayIP10b3DbvtNodeED2Ev.exit unwind label %37

37:                                               ; preds = %36
  %38 = landingpad { ptr, i32 }
          catch ptr null
  %39 = extractvalue { ptr, i32 } %38, 0
  call void @__clang_call_terminate(ptr %39) #18
  unreachable

_ZN20b3AlignedObjectArrayIP10b3DbvtNodeED2Ev.exit: ; preds = %31, %36
  call void @llvm.lifetime.end.p0(i64 32, ptr nonnull %2) #19
  br label %42

40:                                               ; preds = %26, %.noexc2, %_ZNK20b3AlignedObjectArrayIP10b3DbvtNodeE4copyEiiPS1_.exit15.i, %_ZN20b3AlignedObjectArrayIP10b3DbvtNodeE8allocateEi.exit.i, %28, %_ZN20b3AlignedObjectArrayIP10b3DbvtNodeE7reserveEi.exit
  %41 = landingpad { ptr, i32 }
          cleanup
  call void @_ZN20b3AlignedObjectArrayIP10b3DbvtNodeED2Ev(ptr noundef nonnull align 8 dereferenceable(25) %2) #19
  call void @llvm.lifetime.end.p0(i64 32, ptr nonnull %2) #19
  resume { ptr, i32 } %41

42:                                               ; preds = %_ZN20b3AlignedObjectArrayIP10b3DbvtNodeED2Ev.exit, %1
  ret void
}